
_main:

;PIC16F873 Ex1.c,22 :: 		void main() {
;PIC16F873 Ex1.c,23 :: 		TRISC=0x00;
	CLRF       TRISC+0
;PIC16F873 Ex1.c,24 :: 		PORTC=0x00;
	CLRF       PORTC+0
;PIC16F873 Ex1.c,25 :: 		Lcd_Init();                        // Initialize LCD
	CALL       _Lcd_Init+0
;PIC16F873 Ex1.c,27 :: 		Lcd_Cmd(_LCD_CLEAR);               // Clear display
	MOVLW      1
	MOVWF      FARG_Lcd_Cmd_out_char+0
	CALL       _Lcd_Cmd+0
;PIC16F873 Ex1.c,28 :: 		Lcd_Cmd(_LCD_CURSOR_OFF);          // Cursor off
	MOVLW      12
	MOVWF      FARG_Lcd_Cmd_out_char+0
	CALL       _Lcd_Cmd+0
;PIC16F873 Ex1.c,29 :: 		Lcd_Out(1,6,txt3);                 // Write text in first row
	MOVLW      1
	MOVWF      FARG_Lcd_Out_row+0
	MOVLW      6
	MOVWF      FARG_Lcd_Out_column+0
	MOVLW      _txt3+0
	MOVWF      FARG_Lcd_Out_text+0
	CALL       _Lcd_Out+0
;PIC16F873 Ex1.c,31 :: 		Lcd_Out(2,6,txt4);                 // Write text in second row
	MOVLW      2
	MOVWF      FARG_Lcd_Out_row+0
	MOVLW      6
	MOVWF      FARG_Lcd_Out_column+0
	MOVLW      _txt4+0
	MOVWF      FARG_Lcd_Out_text+0
	CALL       _Lcd_Out+0
;PIC16F873 Ex1.c,32 :: 		Delay_ms(2000);
	MOVLW      11
	MOVWF      R11+0
	MOVLW      38
	MOVWF      R12+0
	MOVLW      93
	MOVWF      R13+0
L_main0:
	DECFSZ     R13+0, 1
	GOTO       L_main0
	DECFSZ     R12+0, 1
	GOTO       L_main0
	DECFSZ     R11+0, 1
	GOTO       L_main0
	NOP
	NOP
;PIC16F873 Ex1.c,33 :: 		Lcd_Cmd(_LCD_CLEAR);               // Clear display
	MOVLW      1
	MOVWF      FARG_Lcd_Cmd_out_char+0
	CALL       _Lcd_Cmd+0
;PIC16F873 Ex1.c,35 :: 		Lcd_Out(1,1,txt1);                 // Write text in first row
	MOVLW      1
	MOVWF      FARG_Lcd_Out_row+0
	MOVLW      1
	MOVWF      FARG_Lcd_Out_column+0
	MOVLW      _txt1+0
	MOVWF      FARG_Lcd_Out_text+0
	CALL       _Lcd_Out+0
;PIC16F873 Ex1.c,36 :: 		Lcd_Out(2,5,txt2);                 // Write text in second row
	MOVLW      2
	MOVWF      FARG_Lcd_Out_row+0
	MOVLW      5
	MOVWF      FARG_Lcd_Out_column+0
	MOVLW      _txt2+0
	MOVWF      FARG_Lcd_Out_text+0
	CALL       _Lcd_Out+0
;PIC16F873 Ex1.c,38 :: 		Delay_ms(2000);
	MOVLW      11
	MOVWF      R11+0
	MOVLW      38
	MOVWF      R12+0
	MOVLW      93
	MOVWF      R13+0
L_main1:
	DECFSZ     R13+0, 1
	GOTO       L_main1
	DECFSZ     R12+0, 1
	GOTO       L_main1
	DECFSZ     R11+0, 1
	GOTO       L_main1
	NOP
	NOP
;PIC16F873 Ex1.c,41 :: 		while(1)
L_main2:
;PIC16F873 Ex1.c,44 :: 		PORTC=0xFF;
	MOVLW      255
	MOVWF      PORTC+0
;PIC16F873 Ex1.c,45 :: 		Delay_ms(2000);
	MOVLW      11
	MOVWF      R11+0
	MOVLW      38
	MOVWF      R12+0
	MOVLW      93
	MOVWF      R13+0
L_main4:
	DECFSZ     R13+0, 1
	GOTO       L_main4
	DECFSZ     R12+0, 1
	GOTO       L_main4
	DECFSZ     R11+0, 1
	GOTO       L_main4
	NOP
	NOP
;PIC16F873 Ex1.c,46 :: 		PORTC=0x00;
	CLRF       PORTC+0
;PIC16F873 Ex1.c,47 :: 		Delay_ms(2000);
	MOVLW      11
	MOVWF      R11+0
	MOVLW      38
	MOVWF      R12+0
	MOVLW      93
	MOVWF      R13+0
L_main5:
	DECFSZ     R13+0, 1
	GOTO       L_main5
	DECFSZ     R12+0, 1
	GOTO       L_main5
	DECFSZ     R11+0, 1
	GOTO       L_main5
	NOP
	NOP
;PIC16F873 Ex1.c,48 :: 		}
	GOTO       L_main2
;PIC16F873 Ex1.c,49 :: 		}
L_end_main:
	GOTO       $+0
; end of _main
